(dp0
S'xLogo'
p1
ccopy_reg
_reconstructor
p2
(cgeometry_msgs.msg._Pose
Pose
p3
c__builtin__
object
p4
Ntp5
Rp6
(lp7
g2
(cgeometry_msgs.msg._Point
Point
p8
g4
Ntp9
Rp10
(lp11
F0.8113280156761691
aF-2.520060469477406
aF0.0
abag2
(cgeometry_msgs.msg._Quaternion
Quaternion
p12
g4
Ntp13
Rp14
(lp15
F0.0
aF0.0
aF-0.9999929518887442
aF0.0037544870269933706
ababsS'xPillar'
p16
g2
(g3
g4
Ntp17
Rp18
(lp19
g2
(g8
g4
Ntp20
Rp21
(lp22
F3.5040514273503907
aF5.428171899884363
aF0.0
abag2
(g12
g4
Ntp23
Rp24
(lp25
F0.0
aF0.0
aF0.8848402495249907
aF0.4658945511814365
ababsS'Bookshelf3'
p26
g2
(g3
g4
Ntp27
Rp28
(lp29
g2
(g8
g4
Ntp30
Rp31
(lp32
F-3.6656941155709215
aF-14.533844343311554
aF0.0
abag2
(g12
g4
Ntp33
Rp34
(lp35
F0.0
aF0.0
aF0.6570531590802817
aF0.7538442452805633
ababsS'Bookshelf2'
p36
g2
(g3
g4
Ntp37
Rp38
(lp39
g2
(g8
g4
Ntp40
Rp41
(lp42
F-3.556080356989279
aF-14.594155721364599
aF0.0
abag2
(g12
g4
Ntp43
Rp44
(lp45
F0.0
aF0.0
aF0.6114087924973174
aF0.7913149110543616
ababsS'xDefault'
p46
g2
(g3
g4
Ntp47
Rp48
(lp49
g2
(g8
g4
Ntp50
Rp51
(lp52
F-0.7629617704919246
aF0.5869771808248897
aF0.0
abag2
(g12
g4
Ntp53
Rp54
(lp55
F0.0
aF0.0
aF-0.3789454415859244
aF0.925419014447644
ababsS'Delivery1'
p56
g2
(g3
g4
Ntp57
Rp58
(lp59
g2
(g8
g4
Ntp60
Rp61
(lp62
F-2.7164090239099656
aF-14.693360614144904
aF0.0
abag2
(g12
g4
Ntp63
Rp64
(lp65
F0.0
aF0.0
aF0.00472233879895209
aF0.9999888496959694
ababsS'xTable'
p66
g2
(g3
g4
Ntp67
Rp68
(lp69
g2
(g8
g4
Ntp70
Rp71
(lp72
F3.6930788229085967
aF0.6823640555692171
aF0.0
abag2
(g12
g4
Ntp73
Rp74
(lp75
F0.0
aF0.0
aF0.5397145453999189
aF0.8418480916909884
ababsS'Delivery2'
p76
g2
(g3
g4
Ntp77
Rp78
(lp79
g2
(g8
g4
Ntp80
Rp81
(lp82
F-4.312866436723173
aF-14.684213471151878
aF0.0
abag2
(g12
g4
Ntp83
Rp84
(lp85
F0.0
aF0.0
aF0.9806145211788109
aF0.1959468316999573
ababsS'Bookshelf'
p86
g2
(g3
g4
Ntp87
Rp88
(lp89
g2
(g8
g4
Ntp90
Rp91
(lp92
F-3.898104667663574
aF-14.641304969787598
aF0.5
abag2
(g12
g4
Ntp93
Rp94
(lp95
F2.036271689576097e-05
aF-2.4897301500459434e-06
aF0.6929503679275513
aF0.721013069152832
ababsS'Home'
p96
g2
(g3
g4
Ntp97
Rp98
(lp99
g2
(g8
g4
Ntp100
Rp101
(lp102
F-1.0945199728012085
aF-15.076946258544922
aF0.5
abag2
(g12
g4
Ntp103
Rp104
(lp105
F4.6626291805296205e-07
aF4.506147490701551e-07
aF-0.9995461106300354
aF-0.030509931966662407
ababsS'xDoor'
p106
g2
(g3
g4
Ntp107
Rp108
(lp109
g2
(g8
g4
Ntp110
Rp111
(lp112
F0.8655045387875213
aF3.0406628904450583
aF0.0
abag2
(g12
g4
Ntp113
Rp114
(lp115
F0.0
aF0.0
aF-0.9607157452802487
aF0.2775342443206175
ababs.