(dp0
S'RETREAT'
p1
ccopy_reg
_reconstructor
p2
(cgeometry_msgs.msg._Pose
Pose
p3
c__builtin__
object
p4
Ntp5
Rp6
(lp7
g2
(cgeometry_msgs.msg._Point
Point
p8
g4
Ntp9
Rp10
(lp11
F1.0396910905838013
aF-0.751467764377594
aF6.650557793363987e-07
abag2
(cgeometry_msgs.msg._Quaternion
Quaternion
p12
g4
Ntp13
Rp14
(lp15
F-7.028705113043543e-06
aF-1.0247324098600075e-05
aF-0.8788103461265564
aF0.4771750867366791
ababs.