(dp0
S'Hallway'
p1
ccopy_reg
_reconstructor
p2
(cgeometry_msgs.msg._Pose
Pose
p3
c__builtin__
object
p4
Ntp5
Rp6
(lp7
g2
(cgeometry_msgs.msg._Point
Point
p8
g4
Ntp9
Rp10
(lp11
F-5.578407287597656
aF2.062098503112793
aF0.5
abag2
(cgeometry_msgs.msg._Quaternion
Quaternion
p12
g4
Ntp13
Rp14
(lp15
F2.062871317320969e-06
aF2.028030166911776e-06
aF0.5952835083007812
aF0.8035167455673218
ababsS'island'
p16
g2
(g3
g4
Ntp17
Rp18
(lp19
g2
(g8
g4
Ntp20
Rp21
(lp22
F2.405374534199436
aF0.8524798179145686
aF0.0
abag2
(g12
g4
Ntp23
Rp24
(lp25
F0.0
aF0.0
aF0.35566428840548653
aF0.9346137779601897
ababsS'Pillar'
p26
g2
(g3
g4
Ntp27
Rp28
(lp29
g2
(g8
g4
Ntp30
Rp31
(lp32
F2.806600570678711
aF4.638216018676758
aF0.0
abag2
(g12
g4
Ntp33
Rp34
(lp35
F2.294925025125849e-06
aF2.588951474535861e-06
aF-0.7927534580230713
aF0.6095423698425293
ababsS'Doorway'
p36
g2
(g3
g4
Ntp37
Rp38
(lp39
g2
(g8
g4
Ntp40
Rp41
(lp42
F0.5628671646118164
aF2.6344358921051025
aF0.0
abag2
(g12
g4
Ntp43
Rp44
(lp45
F2.284693437104579e-06
aF6.15282047533583e-08
aF0.9818326234817505
aF0.18975982069969177
ababsS'Logo'
p46
g2
(g3
g4
Ntp47
Rp48
(lp49
g2
(g8
g4
Ntp50
Rp51
(lp52
F0.36094822349932915
aF-1.2558195620779067
aF0.0
abag2
(g12
g4
Ntp53
Rp54
(lp55
F0.0
aF0.0
aF-0.9999970978594263
aF0.0024092058286928077
ababsS'Kitchen'
p56
g2
(g3
g4
Ntp57
Rp58
(lp59
g2
(g8
g4
Ntp60
Rp61
(lp62
F-2.226148843765259
aF4.189436912536621
aF0.0
abag2
(g12
g4
Ntp63
Rp64
(lp65
F3.2938323784037493e-06
aF4.785403234564001e-06
aF0.7463191151618958
aF0.6655882596969604
ababs.