(dp0
S'asdf'
p1
ccopy_reg
_reconstructor
p2
(cgeometry_msgs.msg._Pose
Pose
p3
c__builtin__
object
p4
Ntp5
Rp6
(lp7
g2
(cgeometry_msgs.msg._Point
Point
p8
g4
Ntp9
Rp10
(lp11
F4.142274379730225
aF-2.0045719146728516
aF4.76837158203125e-07
abag2
(cgeometry_msgs.msg._Quaternion
Quaternion
p12
g4
Ntp13
Rp14
(lp15
F0.0
aF0.0
aF0.0
aF1.0
ababsS'anohter 1'
p16
g2
(g3
g4
Ntp17
Rp18
(lp19
g2
(g8
g4
Ntp20
Rp21
(lp22
F1.3552318811416626
aF-3.229440212249756
aF8.276861080958042e-07
abag2
(g12
g4
Ntp23
Rp24
(lp25
F6.2853159761289135e-06
aF2.723794523262768e-06
aF-0.28757742047309875
aF0.9577596187591553
ababs.