(dp0
S'xLogo'
p1
ccopy_reg
_reconstructor
p2
(cgeometry_msgs.msg._Pose
Pose
p3
c__builtin__
object
p4
Ntp5
Rp6
(lp7
g2
(cgeometry_msgs.msg._Point
Point
p8
g4
Ntp9
Rp10
(lp11
F0.8113280156761691
aF-2.520060469477406
aF0.0
abag2
(cgeometry_msgs.msg._Quaternion
Quaternion
p12
g4
Ntp13
Rp14
(lp15
F0.0
aF0.0
aF-0.9999929518887442
aF0.0037544870269933706
ababsS'DEMO_bookshelf1'
p16
g2
(g3
g4
Ntp17
Rp18
(lp19
g2
(g8
g4
Ntp20
Rp21
(lp22
F-2.6753075780068105
aF-0.03175630273475704
aF0.0
abag2
(g12
g4
Ntp23
Rp24
(lp25
F0.0
aF0.0
aF0.7980885233589364
aF0.6025402134984456
ababsS'DEMO_bookshelf2'
p26
g2
(g3
g4
Ntp27
Rp28
(lp29
g2
(g8
g4
Ntp30
Rp31
(lp32
F-2.639968433768672
aF0.08332888557778982
aF0.0
abag2
(g12
g4
Ntp33
Rp34
(lp35
F0.0
aF0.0
aF0.7429777653603962
aF0.669316098850216
ababsS'DEMO_bookshelf3'
p36
g2
(g3
g4
Ntp37
Rp38
(lp39
g2
(g8
g4
Ntp40
Rp41
(lp42
F-2.623478192833132
aF-0.010252073310340835
aF0.0
abag2
(g12
g4
Ntp43
Rp44
(lp45
F0.0
aF0.0
aF0.6571626300236884
aF0.7537488160523697
ababsS'Delivery2'
p46
g2
(g3
g4
Ntp47
Rp48
(lp49
g2
(g8
g4
Ntp50
Rp51
(lp52
F-4.312866436723173
aF-14.684213471151878
aF0.0
abag2
(g12
g4
Ntp53
Rp54
(lp55
F0.0
aF0.0
aF0.9806145211788109
aF0.1959468316999573
ababsS'Bookshelf3'
p56
g2
(g3
g4
Ntp57
Rp58
(lp59
g2
(g8
g4
Ntp60
Rp61
(lp62
F-3.6656941155709215
aF-14.533844343311554
aF0.0
abag2
(g12
g4
Ntp63
Rp64
(lp65
F0.0
aF0.0
aF0.6570531590802817
aF0.7538442452805633
ababsS'Bookshelf2'
p66
g2
(g3
g4
Ntp67
Rp68
(lp69
g2
(g8
g4
Ntp70
Rp71
(lp72
F-3.556080356989279
aF-14.594155721364599
aF0.0
abag2
(g12
g4
Ntp73
Rp74
(lp75
F0.0
aF0.0
aF0.6114087924973174
aF0.7913149110543616
ababsS'xDefault'
p76
g2
(g3
g4
Ntp77
Rp78
(lp79
g2
(g8
g4
Ntp80
Rp81
(lp82
F-0.7629617704919246
aF0.5869771808248897
aF0.0
abag2
(g12
g4
Ntp83
Rp84
(lp85
F0.0
aF0.0
aF-0.3789454415859244
aF0.925419014447644
ababsS'Delivery1'
p86
g2
(g3
g4
Ntp87
Rp88
(lp89
g2
(g8
g4
Ntp90
Rp91
(lp92
F-2.7164090239099656
aF-14.693360614144904
aF0.0
abag2
(g12
g4
Ntp93
Rp94
(lp95
F0.0
aF0.0
aF0.00472233879895209
aF0.9999888496959694
ababsS'xTable'
p96
g2
(g3
g4
Ntp97
Rp98
(lp99
g2
(g8
g4
Ntp100
Rp101
(lp102
F3.6930788229085967
aF0.6823640555692171
aF0.0
abag2
(g12
g4
Ntp103
Rp104
(lp105
F0.0
aF0.0
aF0.5397145453999189
aF0.8418480916909884
ababsS'xPillar'
p106
g2
(g3
g4
Ntp107
Rp108
(lp109
g2
(g8
g4
Ntp110
Rp111
(lp112
F3.5040514273503907
aF5.428171899884363
aF0.0
abag2
(g12
g4
Ntp113
Rp114
(lp115
F0.0
aF0.0
aF0.8848402495249907
aF0.4658945511814365
ababsS'DEMO_home1'
p116
g2
(g3
g4
Ntp117
Rp118
(lp119
g2
(g8
g4
Ntp120
Rp121
(lp122
F2.1572282658615376
aF1.0109664342693003
aF0.0
abag2
(g12
g4
Ntp123
Rp124
(lp125
F0.0
aF0.0
aF-0.9953995880858852
aF0.09581054241809671
ababsS'DEMO_home2'
p126
g2
(g3
g4
Ntp127
Rp128
(lp129
g2
(g8
g4
Ntp130
Rp131
(lp132
F1.6312782112665019
aF0.7541957764624561
aF0.0
abag2
(g12
g4
Ntp133
Rp134
(lp135
F0.0
aF0.0
aF0.9976690907661309
aF0.06823771193322456
ababsS'Bookshelf'
p136
g2
(g3
g4
Ntp137
Rp138
(lp139
g2
(g8
g4
Ntp140
Rp141
(lp142
F-3.898104667663574
aF-14.641304969787598
aF0.5
abag2
(g12
g4
Ntp143
Rp144
(lp145
F2.036271689576097e-05
aF-2.4897301500459434e-06
aF0.6929503679275513
aF0.721013069152832
ababsS'Home'
p146
g2
(g3
g4
Ntp147
Rp148
(lp149
g2
(g8
g4
Ntp150
Rp151
(lp152
F-1.0945199728012085
aF-15.076946258544922
aF0.5
abag2
(g12
g4
Ntp153
Rp154
(lp155
F4.6626291805296205e-07
aF4.506147490701551e-07
aF-0.9995461106300354
aF-0.030509931966662407
ababsS'DEMO_delivery2'
p156
g2
(g3
g4
Ntp157
Rp158
(lp159
g2
(g8
g4
Ntp160
Rp161
(lp162
F0.6177964412114971
aF-0.5488825371070069
aF0.0
abag2
(g12
g4
Ntp163
Rp164
(lp165
F0.0
aF0.0
aF-0.26722743553289735
aF0.9636334872234937
ababsS'xDoor'
p166
g2
(g3
g4
Ntp167
Rp168
(lp169
g2
(g8
g4
Ntp170
Rp171
(lp172
F0.8655045387875213
aF3.0406628904450583
aF0.0
abag2
(g12
g4
Ntp173
Rp174
(lp175
F0.0
aF0.0
aF-0.9607157452802487
aF0.2775342443206175
ababsS'DEMO_delivery1'
p176
g2
(g3
g4
Ntp177
Rp178
(lp179
g2
(g8
g4
Ntp180
Rp181
(lp182
F0.7719975068746344
aF-0.6130182919587106
aF0.0
abag2
(g12
g4
Ntp183
Rp184
(lp185
F0.0
aF0.0
aF0.027026051574155795
aF0.9996347295569072
ababs.