(dp0
S'Bookshelf'
p1
ccopy_reg
_reconstructor
p2
(cgeometry_msgs.msg._Pose
Pose
p3
c__builtin__
object
p4
Ntp5
Rp6
(lp7
g2
(cgeometry_msgs.msg._Point
Point
p8
g4
Ntp9
Rp10
(lp11
F-3.898104667663574
aF-14.641304969787598
aF0.5
abag2
(cgeometry_msgs.msg._Quaternion
Quaternion
p12
g4
Ntp13
Rp14
(lp15
F2.036271689576097e-05
aF-2.4897301500459434e-06
aF0.6929503679275513
aF0.721013069152832
ababsS'Home'
p16
g2
(g3
g4
Ntp17
Rp18
(lp19
g2
(g8
g4
Ntp20
Rp21
(lp22
F-1.0945199728012085
aF-15.076946258544922
aF0.5
abag2
(g12
g4
Ntp23
Rp24
(lp25
F4.6626291805296205e-07
aF4.506147490701551e-07
aF-0.9995461106300354
aF-0.030509931966662407
ababsS'Bookshelf3'
p26
g2
(g3
g4
Ntp27
Rp28
(lp29
g2
(g8
g4
Ntp30
Rp31
(lp32
F-3.6656941155709215
aF-14.533844343311554
aF0.0
abag2
(g12
g4
Ntp33
Rp34
(lp35
F0.0
aF0.0
aF0.6570531590802817
aF0.7538442452805633
ababsS'Bookshelf2'
p36
g2
(g3
g4
Ntp37
Rp38
(lp39
g2
(g8
g4
Ntp40
Rp41
(lp42
F-3.556080356989279
aF-14.594155721364599
aF0.0
abag2
(g12
g4
Ntp43
Rp44
(lp45
F0.0
aF0.0
aF0.6114087924973174
aF0.7913149110543616
ababs.