(dp0
S'Hallway'
p1
ccopy_reg
_reconstructor
p2
(cgeometry_msgs.msg._Pose
Pose
p3
c__builtin__
object
p4
Ntp5
Rp6
(lp7
g2
(cgeometry_msgs.msg._Point
Point
p8
g4
Ntp9
Rp10
(lp11
F-5.578407287597656
aF2.062098503112793
aF0.5
abag2
(cgeometry_msgs.msg._Quaternion
Quaternion
p12
g4
Ntp13
Rp14
(lp15
F2.062871317320969e-06
aF2.028030166911776e-06
aF0.5952835083007812
aF0.8035167455673218
ababsS'Pillar'
p16
g2
(g3
g4
Ntp17
Rp18
(lp19
g2
(g8
g4
Ntp20
Rp21
(lp22
F2.806600570678711
aF4.638216018676758
aF0.5
abag2
(g12
g4
Ntp23
Rp24
(lp25
F2.294925025125849e-06
aF2.588951474535861e-06
aF-0.7927534580230713
aF0.6095423698425293
ababsS'Table'
p26
g2
(g3
g4
Ntp27
Rp28
(lp29
g2
(g8
g4
Ntp30
Rp31
(lp32
F3.568875312805176
aF-0.06771473586559296
aF0.0
abag2
(g12
g4
Ntp33
Rp34
(lp35
F3.301305014247191e-06
aF2.3047714421409182e-06
aF-0.9970141649246216
aF-0.07723205536603928
ababsS'Kitchen'
p36
g2
(g3
g4
Ntp37
Rp38
(lp39
g2
(g8
g4
Ntp40
Rp41
(lp42
F-2.0621557235717773
aF3.8710665702819824
aF0.5
abag2
(g12
g4
Ntp43
Rp44
(lp45
F3.2938364711299073e-06
aF4.785409146279562e-06
aF0.7463200688362122
aF0.6655890941619873
ababs.