(lp0
ccopy_reg
_reconstructor
p1
(cpbd_pose
PBD_Pose
p2
c__builtin__
object
p3
Ntp4
Rp5
(dp6
S'gripper_open'
p7
I01
sS'frame'
p8
S'15'
p9
sS'pose'
p10
g1
(cgeometry_msgs.msg._Pose
Pose
p11
g3
Ntp12
Rp13
(lp14
g1
(cgeometry_msgs.msg._Point
Point
p15
g3
Ntp16
Rp17
(lp18
cnumpy.core.multiarray
scalar
p19
(cnumpy
dtype
p20
(S'f8'
p21
I0
I1
tp22
Rp23
(I3
S'<'
p24
NNNI-1
I-1
I0
tp25
bS'\xe4\xe5\xa2$E\xc2\xc5?'
p26
tp27
Rp28
ag19
(g23
S'\xd5\xf9v\xad\x80\xed\xb8?'
p29
tp30
Rp31
ag19
(g23
S'\x08\xa1cq\xedd\xda?'
p32
tp33
Rp34
abag1
(cgeometry_msgs.msg._Quaternion
Quaternion
p35
g3
Ntp36
Rp37
(lp38
g19
(g23
S'A\x0f\\\x18\xe63\x88?'
p39
tp40
Rp41
ag19
(g23
S'9\x0e\x01\xd2\x99\xb8\xe6?'
p42
tp43
Rp44
ag19
(g23
S'~l\x1bp\x87)\x8b\xbf'
p45
tp46
Rp47
ag19
(g23
S'\xe2\x15\xcfz\xb3\x86\xe6?'
p48
tp49
Rp50
ababsbag1
(g2
g3
Ntp51
Rp52
(dp53
g7
I01
sg8
S'15'
p54
sg10
g1
(g11
g3
Ntp55
Rp56
(lp57
g1
(g15
g3
Ntp58
Rp59
(lp60
g19
(g23
S' \xddCo\x86q\x98?'
p61
tp62
Rp63
ag19
(g23
S'\xf9\xc6S\x1a\xdb!\xd7?'
p64
tp65
Rp66
ag19
(g23
S'\xd0J\x05\xe3\xc5\xc8\xac?'
p67
tp68
Rp69
abag1
(g35
g3
Ntp70
Rp71
(lp72
g19
(g23
S'\x02\xd6\xde\x92OK\x7f?'
p73
tp74
Rp75
ag19
(g23
S'f1\x06\xed\xf7\x19\xe7?'
p76
tp77
Rp78
ag19
(g23
S'\xcb\xd9\xf9\xf7\xec\xcc|\xbf'
p79
tp80
Rp81
ag19
(g23
S'\xb6\xed\xae\x9f\x08$\xe6?'
p82
tp83
Rp84
ababsbag1
(g2
g3
Ntp85
Rp86
(dp87
g7
I01
sg8
S'15'
p88
sg10
g1
(g11
g3
Ntp89
Rp90
(lp91
g1
(g15
g3
Ntp92
Rp93
(lp94
g19
(g23
S'\xc0\xa9\x90"\xd5]\x8b?'
p95
tp96
Rp97
ag19
(g23
S'`2\xd1P+\xfd\xa4\xbf'
p98
tp99
Rp100
ag19
(g23
S'P^Y\xc5\xbc\xde\xab?'
p101
tp102
Rp103
abag1
(g35
g3
Ntp104
Rp105
(lp106
g19
(g23
S'\xc9\x0f\xad9f\xe8\x8c?'
p107
tp108
Rp109
ag19
(g23
S'\x8bM\x92\xc0m\x17\xe7?'
p110
tp111
Rp112
ag19
(g23
S'\xc0C\x10\xb2\t\xb7{\xbf'
p113
tp114
Rp115
ag19
(g23
S'\x0f`\xbc\xd8\xde%\xe6?'
p116
tp117
Rp118
ababsbag1
(g2
g3
Ntp119
Rp120
(dp121
g7
I01
sg8
S'15'
p122
sg10
g1
(g11
g3
Ntp123
Rp124
(lp125
g1
(g15
g3
Ntp126
Rp127
(lp128
g19
(g23
S'\x9aP\xf2\xd6\xc50\xd1?'
p129
tp130
Rp131
ag19
(g23
S'\x90\xa7\xa0)3v\xa8\xbf'
p132
tp133
Rp134
ag19
(g23
S'\x00>S\x95}\xb0\xa9?'
p135
tp136
Rp137
abag1
(g35
g3
Ntp138
Rp139
(lp140
g19
(g23
S'\xc5{68\xf7\xc7\x8a?'
p141
tp142
Rp143
ag19
(g23
S'>h\x8e\xb2\x01\x04\xe7?'
p144
tp145
Rp146
ag19
(g23
S'\x11\x8e4.\xdasy\xbf'
p147
tp148
Rp149
ag19
(g23
S'\x85\x07jxB:\xe6?'
p150
tp151
Rp152
ababsbag1
(g2
g3
Ntp153
Rp154
(dp155
g7
I01
sg8
S'16'
p156
sg10
g1
(g11
g3
Ntp157
Rp158
(lp159
g1
(g15
g3
Ntp160
Rp161
(lp162
F0.0
aF0.0
aF0.0
abag1
(g35
g3
Ntp163
Rp164
(lp165
F0.0
aF0.0
aF0.0
aF0.0
ababsbag1
(g2
g3
Ntp166
Rp167
(dp168
g7
I01
sg8
S'15'
p169
sg10
g1
(g11
g3
Ntp170
Rp171
(lp172
g1
(g15
g3
Ntp173
Rp174
(lp175
g19
(g23
S'\xdeAmS(\x03\xd1?'
p176
tp177
Rp178
ag19
(g23
S'{\x00\x1d\x14\xe6~\xc3\xbf'
p179
tp180
Rp181
ag19
(g23
S'\xe0\xdb\x95 \x9fo\xa9?'
p182
tp183
Rp184
abag1
(g35
g3
Ntp185
Rp186
(lp187
g19
(g23
S'\xbcN|\x06g\xba~?'
p188
tp189
Rp190
ag19
(g23
S'\x17\x8d\x04\xecG\xfd\xe6?'
p191
tp192
Rp193
ag19
(g23
S'X\x1f\x050\x08\xfc\x82\xbf'
p194
tp195
Rp196
ag19
(g23
S'\xc46\xee\xcf\x9cA\xe6?'
p197
tp198
Rp199
ababsbag1
(g2
g3
Ntp200
Rp201
(dp202
g7
I01
sg8
S'15'
p203
sg10
g1
(g11
g3
Ntp204
Rp205
(lp206
g1
(g15
g3
Ntp207
Rp208
(lp209
g19
(g23
S'@\xfa\ny8b\x8f\xbf'
p210
tp211
Rp212
ag19
(g23
S'\xd9*\x89H\xcc\x8b\xc2\xbf'
p213
tp214
Rp215
ag19
(g23
S'\xa8h\xb9 )\x0b\xb7?'
p216
tp217
Rp218
abag1
(g35
g3
Ntp219
Rp220
(lp221
g19
(g23
S'\xe6\xe2d\xdd\x8cP\x89?'
p222
tp223
Rp224
ag19
(g23
S'\x8a\x92\x1c \xf0 \xe8?'
p225
tp226
Rp227
ag19
(g23
S'\x19 \x04X\xc0\xb8p\xbf'
p228
tp229
Rp230
ag19
(g23
S'<\x10Q\x02\xdd\x03\xe5?'
p231
tp232
Rp233
ababsbag1
(g2
g3
Ntp234
Rp235
(dp236
g7
I01
sg8
S'15'
p237
sg10
g1
(g11
g3
Ntp238
Rp239
(lp240
g1
(g15
g3
Ntp241
Rp242
(lp243
g19
(g23
S'\xc0\x0c\xf3\xa5\x11|\x81\xbf'
p244
tp245
Rp246
ag19
(g23
S'\x9b\x88&\x8bv\x89\xbd?'
p247
tp248
Rp249
ag19
(g23
S'0\x0e4\xc2\x9fW\xb7?'
p250
tp251
Rp252
abag1
(g35
g3
Ntp253
Rp254
(lp255
g19
(g23
S'\xbd\xe8\xb3\x85Z\x7f\x8a?'
p256
tp257
Rp258
ag19
(g23
S'\x06\x84\x1f\xfd\\\x13\xe8?'
p259
tp260
Rp261
ag19
(g23
S'\x88\xb7\xf4\xc2/\xf3\x7f\xbf'
p262
tp263
Rp264
ag19
(g23
S'g8]H\x0b\x13\xe5?'
p265
tp266
Rp267
ababsba.