(lp0
ccopy_reg
_reconstructor
p1
(cpbd_pose
PBD_Pose
p2
c__builtin__
object
p3
Ntp4
Rp5
(dp6
S'gripper_open'
p7
I01
sS'frame'
p8
S'base_link'
p9
sS'pose'
p10
g1
(cgeometry_msgs.msg._Pose
Pose
p11
g3
Ntp12
Rp13
(lp14
g1
(cgeometry_msgs.msg._Point
Point
p15
g3
Ntp16
Rp17
(lp18
F0.7541686088835866
aF-0.3572028284512579
aF0.9444540617049678
abag1
(cgeometry_msgs.msg._Quaternion
Quaternion
p19
g3
Ntp20
Rp21
(lp22
F-0.07456095122595267
aF0.25297176683231437
aF0.07584646832620477
aF0.961609724878269
ababsbag1
(g2
g3
Ntp23
Rp24
(dp25
g7
I00
sg8
S'15'
p26
sg10
g1
(g11
g3
Ntp27
Rp28
(lp29
g1
(g15
g3
Ntp30
Rp31
(lp32
cnumpy.core.multiarray
scalar
p33
(cnumpy
dtype
p34
(S'f8'
p35
I0
I1
tp36
Rp37
(I3
S'<'
p38
NNNI-1
I-1
I0
tp39
bS'\xe4s\x19\xf0<\x11\xd4?'
p40
tp41
Rp42
ag33
(g37
S'\xb9\x01@\x9d\x04\xbb\xb4\xbf'
p43
tp44
Rp45
ag33
(g37
S'@Ht\x11&i\x8e\xbf'
p46
tp47
Rp48
abag1
(g19
g3
Ntp49
Rp50
(lp51
g33
(g37
S'\xc8\xb0\x14\xeb\xde{f?'
p52
tp53
Rp54
ag33
(g37
S'\xbb\xa5\xb60\xc4\x8c\xeb?'
p55
tp56
Rp57
ag33
(g37
S'g\x12:\xab\xe71\xbe?'
p58
tp59
Rp60
ag33
(g37
S'YNvv\x95\xab\xdf?'
p61
tp62
Rp63
ababsbag1
(g2
g3
Ntp64
Rp65
(dp66
g7
I00
sg8
S'base_link'
p67
sg10
g1
(g11
g3
Ntp68
Rp69
(lp70
g1
(g15
g3
Ntp71
Rp72
(lp73
F0.7480180291061568
aF0.31882714437714005
aF1.0889947814141467
abag1
(g19
g3
Ntp74
Rp75
(lp76
F-0.0987102639257341
aF0.23543939266323674
aF-0.03863898057930682
aF0.9660908887666161
ababsbag1
(g2
g3
Ntp77
Rp78
(dp79
g7
I01
sg8
S'3'
p80
sg10
g1
(g11
g3
Ntp81
Rp82
(lp83
g1
(g15
g3
Ntp84
Rp85
(lp86
g33
(g37
S'$Bb\x955\xbe\xb7\xbf'
p87
tp88
Rp89
ag33
(g37
S'\x12\x1eNWSk\xd1?'
p90
tp91
Rp92
ag33
(g37
S'x\x02\xe3?\x89\xbc\xc0?'
p93
tp94
Rp95
abag1
(g19
g3
Ntp96
Rp97
(lp98
g33
(g37
S'\x0f\xcf\xbc\x16\xff\x8f\xe3\xbf'
p99
tp100
Rp101
ag33
(g37
S'\xbc~\xc5\xc2\xa69\xe2?'
p102
tp103
Rp104
ag33
(g37
S"sP\xd7\x13$'\xde?"
p105
tp106
Rp107
ag33
(g37
S'\r\x14\xd6_+\x18\xd2?'
p108
tp109
Rp110
ababsba.