(lp0
ccopy_reg
_reconstructor
p1
(cpbd_pose
PBD_Pose
p2
c__builtin__
object
p3
Ntp4
Rp5
(dp6
S'gripper_open'
p7
I01
sS'frame'
p8
S'base_link'
p9
sS'pose'
p10
g1
(cgeometry_msgs.msg._Pose
Pose
p11
g3
Ntp12
Rp13
(lp14
g1
(cgeometry_msgs.msg._Point
Point
p15
g3
Ntp16
Rp17
(lp18
F0.05532574906867145
aF-0.1396420146495974
aF0.5713166187125991
abag1
(cgeometry_msgs.msg._Quaternion
Quaternion
p19
g3
Ntp20
Rp21
(lp22
F0.4597975853845222
aF-0.5031695077653416
aF0.5115898711220276
aF0.5231466627009046
ababsbag1
(g2
g3
Ntp23
Rp24
(dp25
g7
I00
sg8
S'15'
p26
sg10
g1
(g11
g3
Ntp27
Rp28
(lp29
g1
(g15
g3
Ntp30
Rp31
(lp32
cnumpy.core.multiarray
scalar
p33
(cnumpy
dtype
p34
(S'f8'
p35
I0
I1
tp36
Rp37
(I3
S'<'
p38
NNNI-1
I-1
I0
tp39
bS'\x94*\\\xcby\\\xc0?'
p40
tp41
Rp42
ag33
(g37
S'\xbcF\x11\xfd\x8dC\xd6\xbf'
p43
tp44
Rp45
ag33
(g37
S'\xb8\x8d\xc8\xfa\x02C\xd6?'
p46
tp47
Rp48
abag1
(g19
g3
Ntp49
Rp50
(lp51
g33
(g37
S'+\x1c\x96p\x10X\xc6?'
p52
tp53
Rp54
ag33
(g37
S'\xc2\xe3\x19Tv\x14\xe6?'
p55
tp56
Rp57
ag33
(g37
S',\x9e\xb4L\x8a\x0b\xc9?'
p58
tp59
Rp60
ag33
(g37
S'm^\xef\xb4\xb1\x96\xe5?'
p61
tp62
Rp63
ababsbag1
(g2
g3
Ntp64
Rp65
(dp66
g7
I01
sg8
S'15'
p67
sg10
g1
(g11
g3
Ntp68
Rp69
(lp70
g1
(g15
g3
Ntp71
Rp72
(lp73
g33
(g37
S'\xa0[vQ\xcb\x1f\xbc?'
p74
tp75
Rp76
ag33
(g37
S'<\xfeF\xf6\xa3\xa6\xc8?'
p77
tp78
Rp79
ag33
(g37
S'\xf2\x15\x8a\xd0n\xc6\xd2?'
p80
tp81
Rp82
abag1
(g19
g3
Ntp83
Rp84
(lp85
g33
(g37
S'\x84\xa5\x99\x00\xb5N\xd7\xbf'
p86
tp87
Rp88
ag33
(g37
S'Sj\x15@\x8b\xba\xe3?'
p89
tp90
Rp91
ag33
(g37
S'\xc7\xecH\xde\xf9\xb2\xd5\xbf'
p92
tp93
Rp94
ag33
(g37
S'F\xab\xd3]\x9a\x86\xe3?'
p95
tp96
Rp97
ababsba.