(lp0
ccopy_reg
_reconstructor
p1
(cpbd_pose
PBD_Pose
p2
c__builtin__
object
p3
Ntp4
Rp5
(dp6
S'gripper_open'
p7
I01
sS'frame'
p8
S'15'
p9
sS'pose'
p10
g1
(cgeometry_msgs.msg._Pose
Pose
p11
g3
Ntp12
Rp13
(lp14
g1
(cgeometry_msgs.msg._Point
Point
p15
g3
Ntp16
Rp17
(lp18
cnumpy.core.multiarray
scalar
p19
(cnumpy
dtype
p20
(S'f8'
p21
I0
I1
tp22
Rp23
(I3
S'<'
p24
NNNI-1
I-1
I0
tp25
bS'`\x8b\xdd\x98\x87\x90\xbc?'
p26
tp27
Rp28
ag19
(g23
S'\xc77H\xfe\xf9\x0b\xd6?'
p29
tp30
Rp31
ag19
(g23
S'\xac\x12\xe3)>L\xd3?'
p32
tp33
Rp34
abag1
(cgeometry_msgs.msg._Quaternion
Quaternion
p35
g3
Ntp36
Rp37
(lp38
g19
(g23
S'~\xcbI)\xb9\x1b\xd8\xbf'
p39
tp40
Rp41
ag19
(g23
S'\xe5\x98N\x04\xc8\xc4\xe8?'
p42
tp43
Rp44
ag19
(g23
S'\xc7u\xd4\xe7C=\xbd\xbf'
p45
tp46
Rp47
ag19
(g23
S'\xe8[\xa7{[\xbd\xdf?'
p48
tp49
Rp50
ababsbag1
(g2
g3
Ntp51
Rp52
(dp53
g7
I01
sg8
S'base_link'
p54
sg10
g1
(g11
g3
Ntp55
Rp56
(lp57
g1
(g15
g3
Ntp58
Rp59
(lp60
F0.6126631844783543
aF0.4222194949805894
aF0.8702524619961476
abag1
(g35
g3
Ntp61
Rp62
(lp63
F-0.16789145962837884
aF0.18509003256525658
aF-0.35981278672594136
aF0.8989376486371883
ababsbag1
(g2
g3
Ntp64
Rp65
(dp66
g7
I01
sg8
S'3'
p67
sg10
g1
(g11
g3
Ntp68
Rp69
(lp70
g1
(g15
g3
Ntp71
Rp72
(lp73
g19
(g23
S'\xd1\xe2\xf44D\xf2\xe1?'
p74
tp75
Rp76
ag19
(g23
S'\xb8\xd4\xf5\x19\x9b\xe9\xbd?'
p77
tp78
Rp79
ag19
(g23
S'\xe0$\xd4X\x0c/\xa0\xbf'
p80
tp81
Rp82
abag1
(g35
g3
Ntp83
Rp84
(lp85
g19
(g23
S'i\xa7\x97J\xaeJ\xe1\xbf'
p86
tp87
Rp88
ag19
(g23
S'\x9f$\xb5\x88\x1et\xe4?'
p89
tp90
Rp91
ag19
(g23
S'<d\x8f\xaf\x1b\x07\xe0?'
p92
tp93
Rp94
ag19
(g23
S'\x1b\xe0\xaf\xd147\xcc?'
p95
tp96
Rp97
ababsba.