(lp0
ccopy_reg
_reconstructor
p1
(cpbd_pose
PBD_Pose
p2
c__builtin__
object
p3
Ntp4
Rp5
(dp6
S'gripper_open'
p7
I01
sS'frame'
p8
S'base_link'
p9
sS'pose'
p10
g1
(cgeometry_msgs.msg._Pose
Pose
p11
g3
Ntp12
Rp13
(lp14
g1
(cgeometry_msgs.msg._Point
Point
p15
g3
Ntp16
Rp17
(lp18
F-1.8901763333134536e-05
aF-0.4376163863639321
aF1.0095674033440885
abag1
(cgeometry_msgs.msg._Quaternion
Quaternion
p19
g3
Ntp20
Rp21
(lp22
F-0.0018263047671253656
aF-0.004517288093368594
aF0.0028788431878368765
aF0.9999839853623051
ababsbag1
(g2
g3
Ntp23
Rp24
(dp25
g7
I01
sg8
S'4'
p26
sg10
g1
(g11
g3
Ntp27
Rp28
(lp29
g1
(g15
g3
Ntp30
Rp31
(lp32
cnumpy.core.multiarray
scalar
p33
(cnumpy
dtype
p34
(S'f8'
p35
I0
I1
tp36
Rp37
(I3
S'<'
p38
NNNI-1
I-1
I0
tp39
bS'L>\x8a\xca_\x10\xd1\xbf'
p40
tp41
Rp42
ag33
(g37
S'\xe0\x96\x06\xff\xac`\x80\xbf'
p43
tp44
Rp45
ag33
(g37
S'\x00\xc7\xabf\xcc\xc1z\xbf'
p46
tp47
Rp48
abag1
(g19
g3
Ntp49
Rp50
(lp51
g33
(g37
S'\xd9kNm%E\xe7\xbf'
p52
tp53
Rp54
ag33
(g37
S'\x8a\x87\tF\xa8\xa7\x9b\xbf'
p55
tp56
Rp57
ag33
(g37
S'\x13\xd7>\xe5\x02\xda\x91\xbf'
p58
tp59
Rp60
ag33
(g37
S'\x05&fL\x1c\xf1\xe5?'
p61
tp62
Rp63
ababsbag1
(g2
g3
Ntp64
Rp65
(dp66
g7
I00
sg8
g26
sg10
g1
(g11
g3
Ntp67
Rp68
(lp69
g1
(g15
g3
Ntp70
Rp71
(lp72
g33
(g37
S'fG\xe8\xc2\xbba\xc8\xbf'
p73
tp74
Rp75
ag33
(g37
S' \xa5LD\x94Cy\xbf'
p76
tp77
Rp78
ag33
(g37
S'\x00b<K\xc1 X\xbf'
p79
tp80
Rp81
abag1
(g19
g3
Ntp82
Rp83
(lp84
g33
(g37
S'\x9b\x0eyS\x17(\xe7\xbf'
p85
tp86
Rp87
ag33
(g37
S'\x802\x86\xd4\x024\xa3\xbf'
p88
tp89
Rp90
ag33
(g37
S'\xd0\xf9/\x1a\xfaJ\x90\xbf'
p91
tp92
Rp93
ag33
(g37
S'\xffT\xe9\xb0\n\x0c\xe6?'
p94
tp95
Rp96
ababsbag1
(g2
g3
Ntp97
Rp98
(dp99
g7
I01
sg8
g26
sg10
g1
(g11
g3
Ntp100
Rp101
(lp102
g1
(g15
g3
Ntp103
Rp104
(lp105
g33
(g37
S'\xa7i\x84\x04\xa1\x10\xcf\xbf'
p106
tp107
Rp108
ag33
(g37
S'@!\xe7g\xa7\x00~\xbf'
p109
tp110
Rp111
ag33
(g37
S'\x80P\x84\t*\xf5s\xbf'
p112
tp113
Rp114
abag1
(g19
g3
Ntp115
Rp116
(lp117
g33
(g37
S'\xbe.\x1fZ\x19\\\xe7\xbf'
p118
tp119
Rp120
ag33
(g37
S'M\xdd\xbb\xe9\xdc\xbd\x9e\xbf'
p121
tp122
Rp123
ag33
(g37
S'\xe58\xdf$\xc0\x85\x95\xbf'
p124
tp125
Rp126
ag33
(g37
S'4;\xb39\xcf\xd6\xe5?'
p127
tp128
Rp129
ababsbag1
(g2
g3
Ntp130
Rp131
(dp132
g7
I01
sg8
S'base_link'
p133
sg10
g1
(g11
g3
Ntp134
Rp135
(lp136
g1
(g15
g3
Ntp137
Rp138
(lp139
F0.12034398329628952
aF-0.4901403910192761
aF0.8764506958314267
abag1
(g19
g3
Ntp140
Rp141
(lp142
F0.9966556198243958
aF-0.07916682156954505
aF-0.0015652895641199815
aF0.020192565552839943
ababsba.