(lp0
ccopy_reg
_reconstructor
p1
(cpbd_pose
PBD_Pose
p2
c__builtin__
object
p3
Ntp4
Rp5
(dp6
S'gripper_open'
p7
I01
sS'frame'
p8
S'base_link'
p9
sS'pose'
p10
g1
(cgeometry_msgs.msg._Pose
Pose
p11
g3
Ntp12
Rp13
(lp14
g1
(cgeometry_msgs.msg._Point
Point
p15
g3
Ntp16
Rp17
(lp18
F0.12765356219592988
aF-0.3813181647695765
aF0.8323422383494469
abag1
(cgeometry_msgs.msg._Quaternion
Quaternion
p19
g3
Ntp20
Rp21
(lp22
F0.0025337967772294315
aF0.004807286955483222
aF-0.004486719792887394
aF0.9999751692974779
ababsbag1
(g2
g3
Ntp23
Rp24
(dp25
g7
I01
sg8
S'4'
p26
sg10
g1
(g11
g3
Ntp27
Rp28
(lp29
g1
(g15
g3
Ntp30
Rp31
(lp32
cnumpy.core.multiarray
scalar
p33
(cnumpy
dtype
p34
(S'f8'
p35
I0
I1
tp36
Rp37
(I3
S'<'
p38
NNNI-1
I-1
I0
tp39
bS'(\xf9e\xb8T\xc6\xd1\xbf'
p40
tp41
Rp42
ag33
(g37
S'@\x10w\xb2eB\x85\xbf'
p43
tp44
Rp45
ag33
(g37
S'\xc0,\xc4t\x12^\x86\xbf'
p46
tp47
Rp48
abag1
(g19
g3
Ntp49
Rp50
(lp51
g33
(g37
S'\xed\xd4\xb7:\x82b\xe6\xbf'
p52
tp53
Rp54
ag33
(g37
S'\x1fZ1\x1cU\xf9\x9e\xbf'
p55
tp56
Rp57
ag33
(g37
S'\t\x16\xc8.\x97m\x8d\xbf'
p58
tp59
Rp60
ag33
(g37
S'\xcf\x16uz\xa3\xd7\xe6?'
p61
tp62
Rp63
ababsbag1
(g2
g3
Ntp64
Rp65
(dp66
g7
I00
sg8
g26
sg10
g1
(g11
g3
Ntp67
Rp68
(lp69
g1
(g15
g3
Ntp70
Rp71
(lp72
g33
(g37
S'2~\xe3\xb2\x16,\xca\xbf'
p73
tp74
Rp75
ag33
(g37
S'\x80\xb9\x82;\xd6\x80\x80\xbf'
p76
tp77
Rp78
ag33
(g37
S'\x00\x9a\xe9\xdb\xf6\x92x\xbf'
p79
tp80
Rp81
abag1
(g19
g3
Ntp82
Rp83
(lp84
g33
(g37
S'3\xa2\xb0e\xbf\x90\xe6\xbf'
p85
tp86
Rp87
ag33
(g37
S'\xa3\x1aVk\x8b\x18\xa3\xbf'
p88
tp89
Rp90
ag33
(g37
S'\xaa@\xd3\xbd\xd4F\x93\xbf'
p91
tp92
Rp93
ag33
(g37
S'\x02\x9a\xd9\xd0Z\xa6\xe6?'
p94
tp95
Rp96
ababsbag1
(g2
g3
Ntp97
Rp98
(dp99
g7
I01
sg8
g26
sg10
g1
(g11
g3
Ntp100
Rp101
(lp102
g1
(g15
g3
Ntp103
Rp104
(lp105
g33
(g37
S'(\xe3\x96Z]\xd6\xd0\xbf'
p106
tp107
Rp108
ag33
(g37
S'\xd0\xd4\xc2\xcc\xaa;\x84\xbf'
p109
tp110
Rp111
ag33
(g37
S'\x80x\xa1\x03\x02s\x84\xbf'
p112
tp113
Rp114
abag1
(g19
g3
Ntp115
Rp116
(lp117
g33
(g37
S'\x1d9*\x84\xc1d\xe6\xbf'
p118
tp119
Rp120
ag33
(g37
S'\xed\xf9 \xd5Z1\xa3\xbf'
p121
tp122
Rp123
ag33
(g37
S'\xc8\x95\x80\xc4M_\x8c\xbf'
p124
tp125
Rp126
ag33
(g37
S'\xc3\xe3\x95H\xb4\xd2\xe6?'
p127
tp128
Rp129
ababsbag1
(g2
g3
Ntp130
Rp131
(dp132
g7
I01
sg8
g26
sg10
g1
(g11
g3
Ntp133
Rp134
(lp135
g1
(g15
g3
Ntp136
Rp137
(lp138
g33
(g37
S'\x9a\xae u\xb4\xa4\xd0\xbf'
p139
tp140
Rp141
ag33
(g37
S'\xb4\x87\x1e\xf2_\xa8\xba\xbf'
p142
tp143
Rp144
ag33
(g37
S'\xc0\xf6\xcc:\xadp\x86\xbf'
p145
tp146
Rp147
abag1
(g19
g3
Ntp148
Rp149
(lp150
g33
(g37
S'\xedr\x84\xa2\x06\x8e\xe6\xbf'
p151
tp152
Rp153
ag33
(g37
S'L\xc5uHO\x90\xa5\xbf'
p154
tp155
Rp156
ag33
(g37
S'\xeb]\xe3\x01\xe2\x07\x8c\xbf'
p157
tp158
Rp159
ag33
(g37
S'\xe4ss/\xd1\xa7\xe6?'
p160
tp161
Rp162
ababsbag1
(g2
g3
Ntp163
Rp164
(dp165
g7
I01
sg8
S'base_link'
p166
sg10
g1
(g11
g3
Ntp167
Rp168
(lp169
g1
(g15
g3
Ntp170
Rp171
(lp172
F0.0525510049713027
aF-0.415518348436146
aF0.7556544710097509
abag1
(g19
g3
Ntp173
Rp174
(lp175
F0.9966872760554015
aF-0.07879168225524125
aF0.0002689331336276868
aF-0.020156195861882477
ababsba.