(dp0
I1
ccopy_reg
_reconstructor
p1
(cdatabase_reader
BookInfo
p2
c__builtin__
object
p3
Ntp4
Rp5
(dp6
S'book_name'
p7
S'Theoretical Neuroscience'
p8
sS'head_tilt'
p9
F0.3
sS'head_pan'
p10
F-0.15
sS'pose'
p11
g1
(cgeometry_msgs.msg._Pose
Pose
p12
g3
Ntp13
Rp14
(lp15
g1
(cgeometry_msgs.msg._Point
Point
p16
g3
Ntp17
Rp18
(lp19
F-3.56270775501
aF-14.4083569282
aF0.0
abag1
(cgeometry_msgs.msg._Quaternion
Quaternion
p20
g3
Ntp21
Rp22
(lp23
F0.0
aF0.0
aF0.661069986852
aF0.750324244899
ababsS'torso_height'
p24
F0.4
sS'fiducial_number'
p25
I4
sbsI2
g1
(g2
g3
Ntp26
Rp27
(dp28
g7
S'Introduction to Robotics'
p29
sg9
F0.3
sg10
F-0.15
sg11
g1
(g12
g3
Ntp30
Rp31
(lp32
g1
(g16
g3
Ntp33
Rp34
(lp35
F-3.57330127269
aF-14.2583226251
aF0.0
abag1
(g20
g3
Ntp36
Rp37
(lp38
F0.0
aF0.0
aF0.676448113503
aF0.73649029168
ababsg24
F0.4
sg25
I13
sbsI3
g1
(g2
g3
Ntp39
Rp40
(dp41
g7
S'Praise Justin'
p42
sg9
F0.3
sg10
F-0.15
sg11
g1
(g12
g3
Ntp43
Rp44
(lp45
g1
(g16
g3
Ntp46
Rp47
(lp48
F-3.56819814205
aF-14.2622281449
aF0.0
abag1
(g20
g3
Ntp49
Rp50
(lp51
F0.0
aF0.0
aF0.688425807341
aF0.725306768055
ababsg24
F0.4
sg25
I13
sbsI4
g1
(g2
g3
Ntp52
Rp53
(dp54
g7
g42
sg9
F0.3
sg10
F-0.15
sg11
g1
(g12
g3
Ntp55
Rp56
(lp57
g1
(g16
g3
Ntp58
Rp59
(lp60
F-3.60625646394
aF-14.4696206429
aF0.0
abag1
(g20
g3
Ntp61
Rp62
(lp63
F0.0
aF0.0
aF0.686848774251
aF0.726800358633
ababsg24
F0.4
sg25
I13
sbsI-2
g1
(g2
g3
Ntp64
Rp65
(dp66
g7
g42
sg9
F0.3
sg10
F-0.15
sg11
g65
sg24
F0.4
sg25
I13
sbsI-4
g1
(g2
g3
Ntp67
Rp68
(dp69
g7
g42
sg9
F0.3
sg10
F-0.15
sg11
g68
sg24
F0.4
sg25
I13
sbsI-3
g1
(g2
g3
Ntp70
Rp71
(dp72
g7
g42
sg9
F0.3
sg10
F-0.15
sg11
g71
sg24
F0.4
sg25
I13
sbsI-1
g1
(g2
g3
Ntp73
Rp74
(dp75
g7
g42
sg9
F0.3
sg10
F-0.15
sg11
g74
sg24
F0.4
sg25
I13
sbs.