(dp0
I1
ccopy_reg
_reconstructor
p1
(cdatabase_reader
BookInfo
p2
c__builtin__
object
p3
Ntp4
Rp5
(dp6
S'book_name'
p7
S'Theoretical Neuroscience'
p8
sS'head_tilt'
p9
F0.6
sS'head_pan'
p10
F0.0
sS'pose'
p11
g1
(cgeometry_msgs.msg._Pose
Pose
p12
g3
Ntp13
Rp14
(lp15
g1
(cgeometry_msgs.msg._Point
Point
p16
g3
Ntp17
Rp18
(lp19
F-3.66569411557
aF-14.5338443433
aF0.0
abag1
(cgeometry_msgs.msg._Quaternion
Quaternion
p20
g3
Ntp21
Rp22
(lp23
F0.0
aF0.0
aF0.65705315908
aF0.753844245281
ababsS'torso_height'
p24
F0.3
sS'fiducial_number'
p25
I13
sbsI2
g1
(g2
g3
Ntp26
Rp27
(dp28
g7
S'Introduction to Robotics'
p29
sg9
F0.6
sg10
F0.0
sg11
g14
sg24
F0.3
sg25
I4
sbsI3
g1
(g2
g3
Ntp30
Rp31
(dp32
g7
S'Praise Justin'
p33
sg9
F0.55
sg10
F0.0
sg11
g14
sg24
F0.3
sg25
I5
sbsI4
g1
(g2
g3
Ntp34
Rp35
(dp36
g7
g33
sg9
F0.6
sg10
F0.0
sg11
g14
sg24
F0.3
sg25
I3
sbsI-1
g1
(g2
g3
Ntp37
Rp38
(dp39
g7
g33
sg9
F0.0
sg10
F0.0
sg11
g1
(g12
g3
Ntp40
Rp41
(lp42
g1
(g16
g3
Ntp43
Rp44
(lp45
F-0.905816028694
aF-15.1832829877
aF0.0
abag1
(g20
g3
Ntp46
Rp47
(lp48
F0.0
aF0.0
aF0.991462778289
aF0.130390027485
ababsg24
F0.0
sg25
I0
sbsI-2
g1
(g2
g3
Ntp49
Rp50
(dp51
g7
g33
sg9
F0.0
sg10
F0.0
sg11
g1
(g12
g3
Ntp52
Rp53
(lp54
g1
(g16
g3
Ntp55
Rp56
(lp57
F-4.31286643672
aF-14.6842134712
aF0.0
abag1
(g20
g3
Ntp58
Rp59
(lp60
F0.0
aF0.0
aF0.980614521179
aF0.1959468317
ababsg24
F0.0
sg25
I0
sbs.