(dp0
I1
ccopy_reg
_reconstructor
p1
(cdatabase_reader
BookInfo
p2
c__builtin__
object
p3
Ntp4
Rp5
(dp6
S'book_name'
p7
S'Theoretical Neuroscience'
p8
sS'head_tilt'
p9
F0.55
sS'head_pan'
p10
F0.0
sS'pose'
p11
g1
(cgeometry_msgs.msg._Pose
Pose
p12
g3
Ntp13
Rp14
(lp15
g1
(cgeometry_msgs.msg._Point
Point
p16
g3
Ntp17
Rp18
(lp19
F-3.66569411557
aF-14.5338443433
aF0.0
abag1
(cgeometry_msgs.msg._Quaternion
Quaternion
p20
g3
Ntp21
Rp22
(lp23
F0.0
aF0.0
aF0.65705315908
aF0.753844245281
ababsS'torso_height'
p24
F0.25
sS'fiducial_number'
p25
I13
sbsI2
g1
(g2
g3
Ntp26
Rp27
(dp28
g7
S'Introduction to Robotics'
p29
sg9
F0.55
sg10
F0.0
sg11
g1
(g12
g3
Ntp30
Rp31
(lp32
g1
(g16
g3
Ntp33
Rp34
(lp35
F-3.55608035699
aF-14.5941557214
aF0.0
abag1
(g20
g3
Ntp36
Rp37
(lp38
F0.0
aF0.0
aF0.611408792497
aF0.791314911054
ababsg24
F0.25
sg25
I4
sbsI3
g1
(g2
g3
Ntp39
Rp40
(dp41
g7
S'Praise Justin'
p42
sg9
F0.55
sg10
F0.0
sg11
g1
(g12
g3
Ntp43
Rp44
(lp45
g1
(g16
g3
Ntp46
Rp47
(lp48
F-3.60172798139
aF-14.7564795155
aF0.0
abag1
(g20
g3
Ntp49
Rp50
(lp51
F0.0
aF0.0
aF0.69354384818
aF0.720414415911
ababsg24
F0.25
sg25
I5
sbsI4
g1
(g2
g3
Ntp52
Rp53
(dp54
g7
g42
sg9
F0.55
sg10
F0.0
sg11
g1
(g12
g3
Ntp55
Rp56
(lp57
g1
(g16
g3
Ntp58
Rp59
(lp60
F-3.60172798139
aF-14.7564795155
aF0.0
abag1
(g20
g3
Ntp61
Rp62
(lp63
F0.0
aF0.0
aF0.69354384818
aF0.720414415911
ababsg24
F0.25
sg25
I3
sbsI-1
g1
(g2
g3
Ntp64
Rp65
(dp66
g7
g42
sg9
F0.0
sg10
F0.0
sg11
g1
(g12
g3
Ntp67
Rp68
(lp69
g1
(g16
g3
Ntp70
Rp71
(lp72
F-0.905816028694
aF-15.1832829877
aF0.0
abag1
(g20
g3
Ntp73
Rp74
(lp75
F0.0
aF0.0
aF0.991462778289
aF0.130390027485
ababsg24
F0.0
sg25
I0
sbsI-2
g1
(g2
g3
Ntp76
Rp77
(dp78
g7
g42
sg9
F0.0
sg10
F0.0
sg11
g1
(g12
g3
Ntp79
Rp80
(lp81
g1
(g16
g3
Ntp82
Rp83
(lp84
F-1.20871210123
aF-15.3899529824
aF0.0
abag1
(g20
g3
Ntp85
Rp86
(lp87
F0.0
aF0.0
aF-0.769828618017
aF0.638250655214
ababsg24
F0.0
sg25
I0
sbs.