(dp0
I1
ccopy_reg
_reconstructor
p1
(cdatabase_reader
BookInfo
p2
c__builtin__
object
p3
Ntp4
Rp5
(dp6
S'book_name'
p7
S'Theoretical Neuroscience'
p8
sS'head_tilt'
p9
F0.3
sS'head_pan'
p10
F-0.15
sS'pose'
p11
g1
(cgeometry_msgs.msg._Pose
Pose
p12
g3
Ntp13
Rp14
(lp15
g1
(cgeometry_msgs.msg._Point
Point
p16
g3
Ntp17
Rp18
(lp19
F2.56
aF3.22
aF0.0
abag1
(cgeometry_msgs.msg._Quaternion
Quaternion
p20
g3
Ntp21
Rp22
(lp23
F0.0
aF0.0
aF0.016551
aF1.0
ababsS'torso_height'
p24
F0.4
sS'fiducial_number'
p25
I4
sbsI2
g1
(g2
g3
Ntp26
Rp27
(dp28
g7
S'Introduction to Robotics'
p29
sg9
F0.3
sg10
F-0.15
sg11
g14
sg24
F0.4
sg25
I13
sbsI3
g1
(g2
g3
Ntp30
Rp31
(dp32
g7
S'Praise Justin'
p33
sg9
F0.3
sg10
F-0.15
sg11
g14
sg24
F0.4
sg25
I13
sbsI-2
g1
(g2
g3
Ntp34
Rp35
(dp36
g7
g8
sg9
F0.0
sg10
F-0.0
sg11
g1
(g12
g3
Ntp37
Rp38
(lp39
g1
(g16
g3
Ntp40
Rp41
(lp42
F0.3548
aF0.6489
aF0.0
abag1
(g20
g3
Ntp43
Rp44
(lp45
F0.0
aF0.0
aF0.14559
aF0.989
ababsg24
F0.0
sg25
I4
sbsI-1
g1
(g2
g3
Ntp46
Rp47
(dp48
g7
g8
sg9
F0.0
sg10
F-0.0
sg11
g38
sg24
F0.0
sg25
I4
sbs.