(dp0
I1
ccopy_reg
_reconstructor
p1
(cdatabase_reader
BookInfo
p2
c__builtin__
object
p3
Ntp4
Rp5
(dp6
S'book_name'
p7
S'Markov Random Fields'
p8
sS'head_tilt'
p9
F0.6
sS'head_pan'
p10
F0.0
sS'pose'
p11
g1
(cgeometry_msgs.msg._Pose
Pose
p12
g3
Ntp13
Rp14
(lp15
g1
(cgeometry_msgs.msg._Point
Point
p16
g3
Ntp17
Rp18
(lp19
F-2.63996843377
aF0.0833288855778
aF0.0
abag1
(cgeometry_msgs.msg._Quaternion
Quaternion
p20
g3
Ntp21
Rp22
(lp23
F0.0
aF0.0
aF0.74297776536
aF0.66931609885
ababsS'torso_height'
p24
F0.3
sS'fiducial_number'
p25
I13
sbsI2
g1
(g2
g3
Ntp26
Rp27
(dp28
g7
S'Engineering and Chemical Thermodynamics'
p29
sg9
F0.6
sg10
F0.0
sg11
g14
sg24
F0.3
sg25
I4
sbsI3
g1
(g2
g3
Ntp30
Rp31
(dp32
g7
S'Electronic Music'
p33
sg9
F0.6
sg10
F0.0
sg11
g14
sg24
F0.3
sg25
I5
sbsI4
g1
(g2
g3
Ntp34
Rp35
(dp36
g7
S'TCP/IP (Yoga)'
p37
sg9
F0.6
sg10
F0.0
sg11
g14
sg24
F0.3
sg25
I3
sbsI-1
g1
(g2
g3
Ntp38
Rp39
(dp40
g7
S'Praise Justin'
p41
sg9
F0.0
sg10
F0.0
sg11
g1
(g12
g3
Ntp42
Rp43
(lp44
g1
(g16
g3
Ntp45
Rp46
(lp47
F2.15722826586
aF1.01096643427
aF0.0
abag1
(g20
g3
Ntp48
Rp49
(lp50
F0.0
aF0.0
aF-0.995399588086
aF0.0958105424181
ababsg24
F0.0
sg25
I0
sbsI-2
g1
(g2
g3
Ntp51
Rp52
(dp53
g7
g41
sg9
F0.0
sg10
F0.0
sg11
g1
(g12
g3
Ntp54
Rp55
(lp56
g1
(g16
g3
Ntp57
Rp58
(lp59
F0.771997506875
aF-0.613018291959
aF0.0
abag1
(g20
g3
Ntp60
Rp61
(lp62
F0.0
aF0.0
aF0.0270260515742
aF0.999634729557
ababsg24
F0.0
sg25
I0
sbs.