(lp0
ccopy_reg
_reconstructor
p1
(cpbd_pose
PBD_Pose
p2
c__builtin__
object
p3
Ntp4
Rp5
(dp6
S'gripper_open'
p7
I01
sS'frame'
p8
S'base_link'
p9
sS'pose'
p10
g1
(cgeometry_msgs.msg._Pose
Pose
p11
g3
Ntp12
Rp13
(lp14
g1
(cgeometry_msgs.msg._Point
Point
p15
g3
Ntp16
Rp17
(lp18
F0.0798115496431152
aF0.44529147533419555
aF0.9355696237988269
abag1
(cgeometry_msgs.msg._Quaternion
Quaternion
p19
g3
Ntp20
Rp21
(lp22
F-0.0034721523448787996
aF-0.008295344826978104
aF0.0038351471583469303
aF0.9999522103873612
ababsbag1
(g2
g3
Ntp23
Rp24
(dp25
g7
I01
sg8
S'13'
p26
sg10
g1
(g11
g3
Ntp27
Rp28
(lp29
g1
(g15
g3
Ntp30
Rp31
(lp32
cnumpy.core.multiarray
scalar
p33
(cnumpy
dtype
p34
(S'f8'
p35
I0
I1
tp36
Rp37
(I3
S'<'
p38
NNNI-1
I-1
I0
tp39
bS'\xc4\x9f\xc1\xc9l=\xd2\xbf'
p40
tp41
Rp42
ag33
(g37
S'\x88\xfa\x8f\xc6^d\x83\xbf'
p43
tp44
Rp45
ag33
(g37
S'\xc8B\xd10\x0b\xe5\xb2?'
p46
tp47
Rp48
abag1
(g19
g3
Ntp49
Rp50
(lp51
g33
(g37
S'\xd2t8\xcbf\xfd_\xbf'
p52
tp53
Rp54
ag33
(g37
S'\x03\x8b\x96\xa6\xcd\x8ew?'
p55
tp56
Rp57
ag33
(g37
S'E\xea@7\x88\x9b\x99?'
p58
tp59
Rp60
ag33
(g37
S'\xc1\x13\x92tI\xfd\xef?'
p61
tp62
Rp63
ababsbag1
(g2
g3
Ntp64
Rp65
(dp66
g7
I01
sg8
S'13'
p67
sg10
g1
(g11
g3
Ntp68
Rp69
(lp70
g1
(g15
g3
Ntp71
Rp72
(lp73
g33
(g37
S'\x07\x92fP\xa68\xd2\xbf'
p74
tp75
Rp76
ag33
(g37
S'\xcc-\x0c^\x02\xdb\x93\xbf'
p77
tp78
Rp79
ag33
(g37
S'\x00h\xb7\xd9W\x9eG?'
p80
tp81
Rp82
abag1
(g19
g3
Ntp83
Rp84
(lp85
g33
(g37
S'g\xf5\xbaQ\xa6h\xe6\xbf'
p86
tp87
Rp88
ag33
(g37
S'r\xfd\x82\x19\xf8\xf0\x8c\xbf'
p89
tp90
Rp91
ag33
(g37
S'[\x10:cEq\x98?'
p92
tp93
Rp94
ag33
(g37
S'\xa3O\xcb\xb6\xa2\xd3\xe6?'
p95
tp96
Rp97
ababsbag1
(g2
g3
Ntp98
Rp99
(dp100
g7
I00
sg8
S'13'
p101
sg10
g1
(g11
g3
Ntp102
Rp103
(lp104
g1
(g15
g3
Ntp105
Rp106
(lp107
g33
(g37
S'~\xec\xe3\xa3\xce{\xc8\xbf'
p108
tp109
Rp110
ag33
(g37
S'\x9c\xae\x82]U#\x8d\xbf'
p111
tp112
Rp113
ag33
(g37
S'\x00\x88\x9c\x85\x92\x1d>\xbf'
p114
tp115
Rp116
abag1
(g19
g3
Ntp117
Rp118
(lp119
g33
(g37
S'\xf1\xe9\xab\x82\x11\x88\xe6\xbf'
p120
tp121
Rp122
ag33
(g37
S'\xf0\xf6%?\x9d\x7f\x90\xbf'
p123
tp124
Rp125
ag33
(g37
S'\x92-\xd8\t\x84\x10\x92?'
p126
tp127
Rp128
ag33
(g37
S'Ps\xb1\xa3\xc5\xb5\xe6?'
p129
tp130
Rp131
ababsbag1
(g2
g3
Ntp132
Rp133
(dp134
g7
I01
sg8
S'13'
p135
sg10
g1
(g11
g3
Ntp136
Rp137
(lp138
g1
(g15
g3
Ntp139
Rp140
(lp141
g33
(g37
S'\x88H\xcdx\x0eQ\xd1\xbf'
p142
tp143
Rp144
ag33
(g37
S'\xe6$\xc7\xd7T\x15\x93\xbf'
p145
tp146
Rp147
ag33
(g37
S'\x00\xb0G_\x92D5?'
p148
tp149
Rp150
abag1
(g19
g3
Ntp151
Rp152
(lp153
g33
(g37
S's\xd8\xe8\x0c\\e\xe6\xbf'
p154
tp155
Rp156
ag33
(g37
S'f\x9f\xa5\xccUA\x92\xbf'
p157
tp158
Rp159
ag33
(g37
S'4\xfdjg\xff\xed\x97?'
p160
tp161
Rp162
ag33
(g37
S'\xe3\xdckPR\xd6\xe6?'
p163
tp164
Rp165
ababsbag1
(g2
g3
Ntp166
Rp167
(dp168
g7
I01
sg8
S'13'
p169
sg10
g1
(g11
g3
Ntp170
Rp171
(lp172
g1
(g15
g3
Ntp173
Rp174
(lp175
g33
(g37
S'\xaf-R\xd7\x97P\xd1\xbf'
p176
tp177
Rp178
ag33
(g37
S'j;\x02Ca\n\x93\xbf'
p179
tp180
Rp181
ag33
(g37
S'\x00\x101\x86^}3?'
p182
tp183
Rp184
abag1
(g19
g3
Ntp185
Rp186
(lp187
g33
(g37
S'\x96\x8b0\x9boE\x96\xbf'
p188
tp189
Rp190
ag33
(g37
S';\xa68]\xff~\\?'
p191
tp192
Rp193
ag33
(g37
S'\xac\x91\xd4\xad\xb1p\x9f?'
p194
tp195
Rp196
ag33
(g37
S'\x11\x01$\xce/\xfa\xef?'
p197
tp198
Rp199
ababsbag1
(g2
g3
Ntp200
Rp201
(dp202
g7
I01
sg8
S'13'
p203
sg10
g1
(g11
g3
Ntp204
Rp205
(lp206
g1
(g15
g3
Ntp207
Rp208
(lp209
g33
(g37
S'\xd6D\xa6\x93;I\xd1\xbf'
p210
tp211
Rp212
ag33
(g37
S'xIuv\xea\x8b\x8f\xbf'
p213
tp214
Rp215
ag33
(g37
S'\xa8\x01\xb6,\xd1\xc6\xb1?'
p216
tp217
Rp218
abag1
(g19
g3
Ntp219
Rp220
(lp221
g33
(g37
S'a\x1f\xc0 \x834s\xbf'
p222
tp223
Rp224
ag33
(g37
S'\xb1\xa3\rN\xf7\x98m?'
p225
tp226
Rp227
ag33
(g37
S'\xd6\xcb7\x8a\xbd\x97\x9f?'
p228
tp229
Rp230
ag33
(g37
S'6\xdfP\xe7\xf4\xfb\xef?'
p231
tp232
Rp233
ababsbag1
(g2
g3
Ntp234
Rp235
(dp236
g7
I01
sg8
S'base_link'
p237
sg10
g1
(g11
g3
Ntp238
Rp239
(lp240
g1
(g15
g3
Ntp241
Rp242
(lp243
F0.29814967106174917
aF0.2634281237457148
aF0.8030859784758417
abag1
(g19
g3
Ntp244
Rp245
(lp246
F-0.003732593448313937
aF0.005350307156659583
aF-0.028318207601608882
aF0.9995776713581147
ababsbag1
(g2
g3
Ntp247
Rp248
(dp249
g7
I01
sg8
S'base_link'
p250
sg10
g1
(g11
g3
Ntp251
Rp252
(lp253
g1
(g15
g3
Ntp254
Rp255
(lp256
F0.26809764749247894
aF0.3777257342382093
aF0.8029271302846608
abag1
(g19
g3
Ntp257
Rp258
(lp259
F-0.00022701599866481594
aF0.009949521379678073
aF-0.02401917165339995
aF0.9996619603051504
ababsba.