(lp0
ccopy_reg
_reconstructor
p1
(cpbd_pose
PBD_Pose
p2
c__builtin__
object
p3
Ntp4
Rp5
(dp6
S'gripper_open'
p7
I01
sS'frame'
p8
S'base_link'
p9
sS'pose'
p10
g1
(cgeometry_msgs.msg._Pose
Pose
p11
g3
Ntp12
Rp13
(lp14
g1
(cgeometry_msgs.msg._Point
Point
p15
g3
Ntp16
Rp17
(lp18
F-7.150471246303303e-06
aF0.467635764991279
aF0.7438764363371645
abag1
(cgeometry_msgs.msg._Quaternion
Quaternion
p19
g3
Ntp20
Rp21
(lp22
F0.00028284432802786516
aF-0.0025944166051798663
aF-0.0037317626744766677
aF0.9999896314206994
ababsbag1
(g2
g3
Ntp23
Rp24
(dp25
g7
I01
sg8
S'13'
p26
sg10
g1
(g11
g3
Ntp27
Rp28
(lp29
g1
(g15
g3
Ntp30
Rp31
(lp32
cnumpy.core.multiarray
scalar
p33
(cnumpy
dtype
p34
(S'f8'
p35
I0
I1
tp36
Rp37
(I3
S'<'
p38
NNNI-1
I-1
I0
tp39
bS'\xd0\xa70\xc9\xb9a\xd1\xbf'
p40
tp41
Rp42
ag33
(g37
S'\xb2\x7f\x81\xf6\x00\xac\x90\xbf'
p43
tp44
Rp45
ag33
(g37
S'\x18\xa2B\xdd\xd1\x8a\xb2?'
p46
tp47
Rp48
abag1
(g19
g3
Ntp49
Rp50
(lp51
g33
(g37
S'\xa4\x8f~\xe4\xfc\xde\x81\xbf'
p52
tp53
Rp54
ag33
(g37
S'\x0e\xd2P\x1dj\xc0r\xbf'
p55
tp56
Rp57
ag33
(g37
S'\x12bf\xe2\xc8\x88\x9f?'
p58
tp59
Rp60
ag33
(g37
S'\xc7\x1b\xf3z\xb7\xfb\xef?'
p61
tp62
Rp63
ababsbag1
(g2
g3
Ntp64
Rp65
(dp66
g7
I01
sg8
S'13'
p67
sg10
g1
(g11
g3
Ntp68
Rp69
(lp70
g1
(g15
g3
Ntp71
Rp72
(lp73
g33
(g37
S'\x06\xb9\xbb\x8d{a\xd1\xbf'
p74
tp75
Rp76
ag33
(g37
S'\x8aOK\x90x@\x91\xbf'
p77
tp78
Rp79
ag33
(g37
S'\x005\x9d\xe5"\xffa?'
p80
tp81
Rp82
abag1
(g19
g3
Ntp83
Rp84
(lp85
g33
(g37
S'Y\xdb\x92]\xc7\x8f\xe6\xbf'
p86
tp87
Rp88
ag33
(g37
S'\x07\xb0\xa8K]c\x9a\xbf'
p89
tp90
Rp91
ag33
(g37
S'\xd3\x10Jm\x97\xe4\x98?'
p92
tp93
Rp94
ag33
(g37
S'\x18w\x85\x10(\xaa\xe6?'
p95
tp96
Rp97
ababsbag1
(g2
g3
Ntp98
Rp99
(dp100
g7
I00
sg8
S'13'
p101
sg10
g1
(g11
g3
Ntp102
Rp103
(lp104
g1
(g15
g3
Ntp105
Rp106
(lp107
g33
(g37
S'\xbe\xc7!,\x1f;\xc8\xbf'
p108
tp109
Rp110
ag33
(g37
S"\xbc\xf9'\xe4\x9e \x87\xbf"
p111
tp112
Rp113
ag33
(g37
S'\x00\x08\xa7\xb5T4c?'
p114
tp115
Rp116
abag1
(g19
g3
Ntp117
Rp118
(lp119
g33
(g37
S'\x81\xffM\x9cK\xa5\xe6\xbf'
p120
tp121
Rp122
ag33
(g37
S'%k=\x8etn\x9a\xbf'
p123
tp124
Rp125
ag33
(g37
S'n7k M;\x94?'
p126
tp127
Rp128
ag33
(g37
S'u\xfd:B\xcf\x95\xe6?'
p129
tp130
Rp131
ababsbag1
(g2
g3
Ntp132
Rp133
(dp134
g7
I01
sg8
S'13'
p135
sg10
g1
(g11
g3
Ntp136
Rp137
(lp138
g1
(g15
g3
Ntp139
Rp140
(lp141
g33
(g37
S'@\x00Z\xc5?\x1f\xcf\xbf'
p142
tp143
Rp144
ag33
(g37
S'da\xc7\xc6\x14\x98\x8e\xbf'
p145
tp146
Rp147
ag33
(g37
S'\x00\xa7r\xdf\x8e|b?'
p148
tp149
Rp150
abag1
(g19
g3
Ntp151
Rp152
(lp153
g33
(g37
S'\x1e\xf1au\x92\xb0\xe6\xbf'
p154
tp155
Rp156
ag33
(g37
S'\x02Y\xb6N\x7f\xa4\x9a\xbf'
p157
tp158
Rp159
ag33
(g37
S'\x84\xc8.)\xd4\xf5\x94?'
p160
tp161
Rp162
ag33
(g37
S'\xed\x8f\xd3\x81@\x8a\xe6?'
p163
tp164
Rp165
ababsbag1
(g2
g3
Ntp166
Rp167
(dp168
g7
I01
sg8
S'13'
p169
sg10
g1
(g11
g3
Ntp170
Rp171
(lp172
g1
(g15
g3
Ntp173
Rp174
(lp175
g33
(g37
S'\\4\xf5\xa4\xb17\xd0\xbf'
p176
tp177
Rp178
ag33
(g37
S'^\xc2\x80\x99\xb1L\xc1?'
p179
tp180
Rp181
ag33
(g37
S'\x00\x8c`\xd9\xbd\xd7\\\xbf'
p182
tp183
Rp184
abag1
(g19
g3
Ntp185
Rp186
(lp187
g33
(g37
S'jz.M\xea\xe2\xe6\xbf'
p188
tp189
Rp190
ag33
(g37
S'%>\x94x\xd0\xb6\x99\xbf'
p191
tp192
Rp193
ag33
(g37
S'l\x9f\xf6%\xd3R\x97?'
p194
tp195
Rp196
ag33
(g37
S'\x07\x86\x8a\x99\xd0V\xe6?'
p197
tp198
Rp199
ababsbag1
(g2
g3
Ntp200
Rp201
(dp202
g7
I01
sg8
S'base_link'
p203
sg10
g1
(g11
g3
Ntp204
Rp205
(lp206
g1
(g15
g3
Ntp207
Rp208
(lp209
F0.12850231437720722
aF0.39748453520877636
aF0.8429091617736517
abag1
(g19
g3
Ntp210
Rp211
(lp212
F-0.015484731385787437
aF-0.00045766905693042897
aF-0.023041934165276723
aF0.9996144671336382
ababsba.