(lp0
ccopy_reg
_reconstructor
p1
(cpbd_pose
PBD_Pose
p2
c__builtin__
object
p3
Ntp4
Rp5
(dp6
S'gripper_open'
p7
I01
sS'frame'
p8
S'base_link'
p9
sS'pose'
p10
g1
(cgeometry_msgs.msg._Pose
Pose
p11
g3
Ntp12
Rp13
(lp14
g1
(cgeometry_msgs.msg._Point
Point
p15
g3
Ntp16
Rp17
(lp18
F3.10849438644456e-05
aF0.4547313123047998
aF0.8384156670795542
abag1
(cgeometry_msgs.msg._Quaternion
Quaternion
p19
g3
Ntp20
Rp21
(lp22
F-0.003609557652602526
aF-0.0022216397557970717
aF-0.002286288951755643
aF0.9999884040793559
ababsbag1
(g2
g3
Ntp23
Rp24
(dp25
g7
I01
sg8
S'13'
p26
sg10
g1
(g11
g3
Ntp27
Rp28
(lp29
g1
(g15
g3
Ntp30
Rp31
(lp32
cnumpy.core.multiarray
scalar
p33
(cnumpy
dtype
p34
(S'f8'
p35
I0
I1
tp36
Rp37
(I3
S'<'
p38
NNNI-1
I-1
I0
tp39
bS'\xf6T\xbf+cO\xd2\xbf'
p40
tp41
Rp42
ag33
(g37
S'\\\x86\n$\xea\x15\x81\xbf'
p43
tp44
Rp45
ag33
(g37
S'\x80\x93\xc9{\xd3\xa7\xba?'
p46
tp47
Rp48
abag1
(g19
g3
Ntp49
Rp50
(lp51
g33
(g37
S'\xe0\xaf\t8\x97\x99\x7f\xbf'
p52
tp53
Rp54
ag33
(g37
S'{WiK\xdd\xa3Z?'
p55
tp56
Rp57
ag33
(g37
S'R$,:f\xa4\xa0?'
p58
tp59
Rp60
ag33
(g37
S'\xad\x17\xf0\xa3j\xfb\xef?'
p61
tp62
Rp63
ababsbag1
(g2
g3
Ntp64
Rp65
(dp66
g7
I01
sg8
S'13'
p67
sg10
g1
(g11
g3
Ntp68
Rp69
(lp70
g1
(g15
g3
Ntp71
Rp72
(lp73
g33
(g37
S'\xe3i\x13\x13XL\xd2\xbf'
p74
tp75
Rp76
ag33
(g37
S'$\xa5\xf7 8\xe9\x82\xbf'
p77
tp78
Rp79
ag33
(g37
S'\x00\x87@\x12I\xa2u?'
p80
tp81
Rp82
abag1
(g19
g3
Ntp83
Rp84
(lp85
g33
(g37
S'K\xc7a\xa8\xe1J\xe7\xbf'
p86
tp87
Rp88
ag33
(g37
S'\x1aM\x92\x01\xb3\xed\x83\xbf'
p89
tp90
Rp91
ag33
(g37
S'\xad\x84\x03\xa9\x01\x98}?'
p92
tp93
Rp94
ag33
(g37
S'&\xeem\xefQ\xf0\xe5?'
p95
tp96
Rp97
ababsbag1
(g2
g3
Ntp98
Rp99
(dp100
g7
I01
sg8
S'13'
p101
sg10
g1
(g11
g3
Ntp102
Rp103
(lp104
g1
(g15
g3
Ntp105
Rp106
(lp107
g33
(g37
S'\xca\x93\xf4\xd8\xd0W\xc9\xbf'
p108
tp109
Rp110
ag33
(g37
S'\xf0]\xcc\x06\xc6\x0bz\xbf'
p111
tp112
Rp113
ag33
(g37
S'\x00\x11\xa2\xf3\xcamw?'
p114
tp115
Rp116
abag1
(g19
g3
Ntp117
Rp118
(lp119
g33
(g37
S'Y\r\xc9\xe9C6\xe7\xbf'
p120
tp121
Rp122
ag33
(g37
S'\x9d\x17"!%r\x86\xbf'
p123
tp124
Rp125
ag33
(g37
S'\xdb\x9f\xdd\xdf\x98\xee}?'
p126
tp127
Rp128
ag33
(g37
S'\xceW ?\xf8\x05\xe6?'
p129
tp130
Rp131
ababsbag1
(g2
g3
Ntp132
Rp133
(dp134
g7
I00
sg8
S'13'
p135
sg10
g1
(g11
g3
Ntp136
Rp137
(lp138
g1
(g15
g3
Ntp139
Rp140
(lp141
g33
(g37
S'\x10\xe5|VeV\xc9\xbf'
p142
tp143
Rp144
ag33
(g37
S'\xb8c?\x8d\xbf\xf1y\xbf'
p145
tp146
Rp147
ag33
(g37
S'\x80&\x01\x89\xa4Rw?'
p148
tp149
Rp150
abag1
(g19
g3
Ntp151
Rp152
(lp153
g33
(g37
S'\xb5;\x11\xca\xfb5\xe7\xbf'
p154
tp155
Rp156
ag33
(g37
S'u\xb7\xf3+\xc5i\x86\xbf'
p157
tp158
Rp159
ag33
(g37
S'<\x143\xb8\x14\xd9}?'
p160
tp161
Rp162
ag33
(g37
S'\x16\xc1\xaa?E\x06\xe6?'
p163
tp164
Rp165
ababsbag1
(g2
g3
Ntp166
Rp167
(dp168
g7
I00
sg8
S'13'
p169
sg10
g1
(g11
g3
Ntp170
Rp171
(lp172
g1
(g15
g3
Ntp173
Rp174
(lp175
g33
(g37
S'l\x0e\xfdG\xe2\xdd\xcf\xbf'
p176
tp177
Rp178
ag33
(g37
S'$\xee\xf3\x19\xd2\x8f\x80\xbf'
p179
tp180
Rp181
ag33
(g37
S'\x80\xf4A%V\x8bv?'
p182
tp183
Rp184
abag1
(g19
g3
Ntp185
Rp186
(lp187
g33
(g37
S'\x13\xca*\x9d\x070\xe7\xbf'
p188
tp189
Rp190
ag33
(g37
S'\x92\xd6\xd0\xf1\x91i\x8d\xbf'
p191
tp192
Rp193
ag33
(g37
S'\x11k\xbep\xd7\xa3\x85?'
p194
tp195
Rp196
ag33
(g37
S'\x89HK\x1a\xad\x0b\xe6?'
p197
tp198
Rp199
ababsbag1
(g2
g3
Ntp200
Rp201
(dp202
g7
I01
sg8
S'13'
p203
sg10
g1
(g11
g3
Ntp204
Rp205
(lp206
g1
(g15
g3
Ntp207
Rp208
(lp209
g33
(g37
S'\xd4\xed\xf2=\xc6\xdb\xcf\xbf'
p210
tp211
Rp212
ag33
(g37
S'x\xb7\x11\x9f\x8ft\x80\xbf'
p213
tp214
Rp215
ag33
(g37
S'\x80\xdfQ\xcf\x8cCv?'
p216
tp217
Rp218
abag1
(g19
g3
Ntp219
Rp220
(lp221
g33
(g37
S'^y\xa4\xc9\x9a/\xe7\xbf'
p222
tp223
Rp224
ag33
(g37
S'@!\xda\x04\xb7t\x8d\xbf'
p225
tp226
Rp227
ag33
(g37
S'm\xf6nN\x90\x81\x85?'
p228
tp229
Rp230
ag33
(g37
S'\xcb\x9e_\xb9 \x0c\xe6?'
p231
tp232
Rp233
ababsbag1
(g2
g3
Ntp234
Rp235
(dp236
g7
I01
sg8
S'13'
p237
sg10
g1
(g11
g3
Ntp238
Rp239
(lp240
g1
(g15
g3
Ntp241
Rp242
(lp243
g33
(g37
S'l^\x9ec\xc3)\xd5\xbf'
p244
tp245
Rp246
ag33
(g37
S'\xd4\xeeF\x86\xee\xd1\x85\xbf'
p247
tp248
Rp249
ag33
(g37
S'\x80\x1f\x97a\xe7\xfet?'
p250
tp251
Rp252
abag1
(g19
g3
Ntp253
Rp254
(lp255
g33
(g37
S'\x16cO\xc1\x7fD\xe7\xbf'
p256
tp257
Rp258
ag33
(g37
S'}\x9f\xed\x9e\x1d/\x8d\xbf'
p259
tp260
Rp261
ag33
(g37
S'7\x95\xdd\xfb\x9f\x11\x83?'
p262
tp263
Rp264
ag33
(g37
S'\xe6\xd3\xdck<\xf6\xe5?'
p265
tp266
Rp267
ababsbag1
(g2
g3
Ntp268
Rp269
(dp270
g7
I01
sg8
S'13'
p271
sg10
g1
(g11
g3
Ntp272
Rp273
(lp274
g1
(g15
g3
Ntp275
Rp276
(lp277
g33
(g37
S'Ud\xb2\\\xd4)\xd5\xbf'
p278
tp279
Rp280
ag33
(g37
S'\xb0\x9fh\x0b\xc2\xfa\x85\xbf'
p281
tp282
Rp283
ag33
(g37
S'\x80\x9d\x8f\xa2\xff\xf2t?'
p284
tp285
Rp286
abag1
(g19
g3
Ntp287
Rp288
(lp289
g33
(g37
S'\xf9\x95\xda\xe0\x85\xfd\xef?'
p290
tp291
Rp292
ag33
(g37
S'I\xe7&K\x91\xe7\x93?'
p293
tp294
Rp295
ag33
(g37
S'\xa9N\xc6\xfd\xefTQ\xbf'
p296
tp297
Rp298
ag33
(g37
S']F\xfc\x85\x7f\xc4\x8e?'
p299
tp300
Rp301
ababsbag1
(g2
g3
Ntp302
Rp303
(dp304
g7
I01
sg8
S'base_link'
p305
sg10
g1
(g11
g3
Ntp306
Rp307
(lp308
g1
(g15
g3
Ntp309
Rp310
(lp311
F0.22490611243786596
aF0.1719084939912587
aF0.8315371718973014
abag1
(g19
g3
Ntp312
Rp313
(lp314
F0.9992765206088567
aF-0.036487245702433266
aF0.0010883816170581934
aF0.010673878693468836
ababsbag1
(g2
g3
Ntp315
Rp316
(dp317
g7
I01
sg8
S'base_link'
p318
sg10
g1
(g11
g3
Ntp319
Rp320
(lp321
g1
(g15
g3
Ntp322
Rp323
(lp324
F0.11312227124183598
aF0.44024983439779736
aF0.8105740356795118
abag1
(g19
g3
Ntp325
Rp326
(lp327
F0.9999169579146432
aF0.009229710822654613
aF-0.004265647933765033
aF0.007917951790780621
ababsba.